; Function Attrs: nounwind uwtable
define dso_local void @spgDeformLeafTuple(ptr noundef %0, ptr noundef %1, ptr noundef %2, ptr noundef %3, i1 noundef zeroext %4) local_unnamed_addr #0 {
  %6 = getelementptr inbounds nuw i8, ptr %0, i64 4
  %7 = load i16, ptr %6, align 4
  br i1 %4, label %8, label %12

8:                                                ; preds = %5
  %9 = load i32, ptr %1, align 8
  %10 = icmp eq i32 %9, 1
  br i1 %10, label %11, label %12

11:                                               ; preds = %8
  store i64 0, ptr %2, align 8
  store i8 1, ptr %3, align 1
  br label %16

12:                                               ; preds = %8, %5
  %13 = getelementptr inbounds nuw i8, ptr %0, i64 16
  %14 = getelementptr inbounds nuw i8, ptr %0, i64 12
  %.lobit = lshr i16 %7, 15
  %15 = zext nneg i16 %.lobit to i32
  tail call void @index_deform_tuple_internal(ptr noundef %1, ptr noundef %2, ptr noundef %3, ptr noundef nonnull %13, ptr noundef nonnull %14, i32 noundef %15) #10
  br label %16

16:                                               ; preds = %12, %11
  ret void
}